; Function Attrs: mustprogress uwtable
define noundef i32 @_ZN11colvarvalue18from_simple_stringERKNSt7__cxx1112basic_stringIcSt11char_traitsIcESaIcEEE(ptr noundef nonnull align 8 dereferenceable(168) %0, ptr noundef nonnull align 8 dereferenceable(32) %1) local_unnamed_addr #1 align 2 personality ptr @__gxx_personality_v0 {
  %3 = alloca %"class.std::__cxx11::basic_istringstream", align 8
  %4 = load i32, ptr %0, align 8, !tbaa !4
  switch i32 %4, label %51 [
    i32 1, label %5
    i32 2, label %42
    i32 3, label %42
    i32 4, label %42
    i32 5, label %45
    i32 6, label %45
    i32 7, label %48
  ]

5:                                                ; preds = %2
  call void @llvm.lifetime.start.p0(i64 384, ptr nonnull %3) #26
  call void @_ZNSt7__cxx1119basic_istringstreamIcSt11char_traitsIcESaIcEEC1ERKNS_12basic_stringIcS2_S3_EESt13_Ios_Openmode(ptr noundef nonnull align 8 dereferenceable(120) %3, ptr noundef nonnull align 8 dereferenceable(32) %1, i32 noundef 8)
  %6 = getelementptr inbounds nuw i8, ptr %0, i64 8
  %7 = invoke noundef nonnull align 8 dereferenceable(16) ptr @_ZNSi10_M_extractIdEERSiRT_(ptr noundef nonnull align 8 dereferenceable(120) %3, ptr noundef nonnull align 8 dereferenceable(8) %6)
          to label %8 unwind label %40

8:                                                ; preds = %5
  %9 = load ptr, ptr %3, align 8, !tbaa !234
  %10 = getelementptr i8, ptr %9, i64 -24
  %11 = load i64, ptr %10, align 8
  %12 = getelementptr inbounds i8, ptr %3, i64 %11
  %13 = getelementptr inbounds nuw i8, ptr %12, i64 32
  %14 = load i32, ptr %13, align 8, !tbaa !258
  %15 = and i32 %14, 5
  %.not.i = icmp ne i32 %15, 0
  %16 = zext i1 %.not.i to i32
  %17 = load ptr, ptr @_ZTTNSt7__cxx1119basic_istringstreamIcSt11char_traitsIcESaIcEEE, align 8
  store ptr %17, ptr %3, align 8, !tbaa !234
  %18 = load ptr, ptr getelementptr inbounds nuw (i8, ptr @_ZTTNSt7__cxx1119basic_istringstreamIcSt11char_traitsIcESaIcEEE, i64 24), align 8
  %19 = getelementptr i8, ptr %17, i64 -24
  %20 = load i64, ptr %19, align 8
  %21 = getelementptr inbounds i8, ptr %3, i64 %20
  store ptr %18, ptr %21, align 8, !tbaa !234
  %22 = getelementptr inbounds nuw i8, ptr %3, i64 16
  store ptr getelementptr inbounds nuw inrange(-16, 112) (i8, ptr @_ZTVNSt7__cxx1115basic_stringbufIcSt11char_traitsIcESaIcEEE, i64 16), ptr %22, align 8, !tbaa !234
  %23 = getelementptr inbounds nuw i8, ptr %3, i64 88
  %24 = load ptr, ptr %23, align 8, !tbaa !54
  %25 = getelementptr inbounds nuw i8, ptr %3, i64 104
  %26 = icmp eq ptr %24, %25
  br i1 %26, label %_ZNKSt7__cxx1112basic_stringIcSt11char_traitsIcESaIcEE11_M_is_localEv.exit.thread.i.i.i.i.i, label %_ZNKSt7__cxx1112basic_stringIcSt11char_traitsIcESaIcEE11_M_is_localEv.exit.i.i.i.i.i

_ZNKSt7__cxx1112basic_stringIcSt11char_traitsIcESaIcEE11_M_is_localEv.exit.thread.i.i.i.i.i: ; preds = %8
  %27 = getelementptr inbounds nuw i8, ptr %3, i64 96
  %28 = load i64, ptr %27, align 8, !tbaa !48
  %29 = icmp ult i64 %28, 16
  call void @llvm.assume(i1 %29)
  br label %_ZNSt7__cxx1119basic_istringstreamIcSt11char_traitsIcESaIcEED1Ev.exit

_ZNKSt7__cxx1112basic_stringIcSt11char_traitsIcESaIcEE11_M_is_localEv.exit.i.i.i.i.i: ; preds = %8
  %30 = load i64, ptr %25, align 8, !tbaa !55
  %31 = add i64 %30, 1
  call void @_ZdlPvm(ptr noundef %24, i64 noundef %31) #25
  br label %_ZNSt7__cxx1119basic_istringstreamIcSt11char_traitsIcESaIcEED1Ev.exit

_ZNSt7__cxx1119basic_istringstreamIcSt11char_traitsIcESaIcEED1Ev.exit: ; preds = %_ZNKSt7__cxx1112basic_stringIcSt11char_traitsIcESaIcEE11_M_is_localEv.exit.thread.i.i.i.i.i, %_ZNKSt7__cxx1112basic_stringIcSt11char_traitsIcESaIcEE11_M_is_localEv.exit.i.i.i.i.i
  store ptr getelementptr inbounds nuw inrange(-16, 112) (i8, ptr @_ZTVSt15basic_streambufIcSt11char_traitsIcEE, i64 16), ptr %22, align 8, !tbaa !234
  %32 = getelementptr inbounds nuw i8, ptr %3, i64 72
  call void @_ZNSt6localeD1Ev(ptr noundef nonnull align 8 dereferenceable(8) %32) #26
  %33 = load ptr, ptr getelementptr inbounds nuw (i8, ptr @_ZTTNSt7__cxx1119basic_istringstreamIcSt11char_traitsIcESaIcEEE, i64 8), align 8
  store ptr %33, ptr %3, align 8, !tbaa !234
  %34 = load ptr, ptr getelementptr inbounds nuw (i8, ptr @_ZTTNSt7__cxx1119basic_istringstreamIcSt11char_traitsIcESaIcEEE, i64 16), align 8
  %35 = getelementptr i8, ptr %33, i64 -24
  %36 = load i64, ptr %35, align 8
  %37 = getelementptr inbounds i8, ptr %3, i64 %36
  store ptr %34, ptr %37, align 8, !tbaa !234
  %38 = getelementptr inbounds nuw i8, ptr %3, i64 8
  store i64 0, ptr %38, align 8, !tbaa !259
  %39 = getelementptr inbounds nuw i8, ptr %3, i64 120
  call void @_ZNSt8ios_baseD2Ev(ptr noundef nonnull align 8 dereferenceable(264) %39) #26
  call void @llvm.lifetime.end.p0(i64 384, ptr nonnull %3) #26
  br label %52

40:                                               ; preds = %5
  %41 = landingpad { ptr, i32 }
          cleanup
  call void @_ZNSt7__cxx1119basic_istringstreamIcSt11char_traitsIcESaIcEED1Ev(ptr noundef nonnull align 8 dereferenceable(120) %3) #26
  call void @llvm.lifetime.end.p0(i64 384, ptr nonnull %3) #26
  resume { ptr, i32 } %41

42:                                               ; preds = %2, %2, %2
  %43 = getelementptr inbounds nuw i8, ptr %0, i64 16
  %44 = tail call noundef i32 @_ZN12colvarmodule7rvector18from_simple_stringERKNSt7__cxx1112basic_stringIcSt11char_traitsIcESaIcEEE(ptr noundef nonnull align 8 dereferenceable(24) %43, ptr noundef nonnull align 8 dereferenceable(32) %1)
  br label %52

45:                                               ; preds = %2, %2
  %46 = getelementptr inbounds nuw i8, ptr %0, i64 40
  %47 = tail call noundef i32 @_ZN12colvarmodule10quaternion18from_simple_stringERKNSt7__cxx1112basic_stringIcSt11char_traitsIcESaIcEEE(ptr noundef nonnull align 8 dereferenceable(32) %46, ptr noundef nonnull align 8 dereferenceable(32) %1)
  br label %52

48:                                               ; preds = %2
  %49 = getelementptr inbounds nuw i8, ptr %0, i64 72
  %50 = tail call noundef i32 @_ZN12colvarmodule8vector1dIdE18from_simple_stringERKNSt7__cxx1112basic_stringIcSt11char_traitsIcESaIcEEE(ptr noundef nonnull align 8 dereferenceable(24) %49, ptr noundef nonnull align 8 dereferenceable(32) %1)
  br label %52

51:                                               ; preds = %2
  tail call void @_ZNK11colvarvalue8undef_opEv(ptr noundef nonnull align 8 dereferenceable(168) %0)
  br label %52

52:                                               ; preds = %51, %48, %45, %42, %_ZNSt7__cxx1119basic_istringstreamIcSt11char_traitsIcESaIcEED1Ev.exit
  %.0 = phi i32 [ 1, %51 ], [ %50, %48 ], [ %47, %45 ], [ %44, %42 ], [ %16, %_ZNSt7__cxx1119basic_istringstreamIcSt11char_traitsIcESaIcEED1Ev.exit ]
  ret i32 %.0
}